target datalayout = "e-m:e-p270:32:32-p271:32:32-p272:64:64-i64:64-i128:128-f80:128-n8:16:32:64-S128"
target triple = "x86_64-pc-linux-gnu"

%"struct.llvm::EVT" = type { %"class.llvm::MVT", ptr }
%"class.llvm::MVT" = type { i16 }
%"class.llvm::SDValue" = type <{ ptr, i32, [4 x i8] }>
%"class.llvm::SDNode" = type { %"class.llvm::FoldingSetBase::Node", %"class.llvm::ilist_node", i32, %"struct.llvm::SDNodeFlags", %union.anon, i16, i32, ptr, ptr, ptr, i16, i16, i32, %"class.llvm::DebugLoc", i32, i32 }
%"class.llvm::FoldingSetBase::Node" = type { ptr }
%"class.llvm::ilist_node" = type { %"class.llvm::ilist_node_impl" }
%"class.llvm::ilist_node_impl" = type { %"class.llvm::ilist_node_base" }
%"class.llvm::ilist_node_base" = type { %"class.llvm::ilist_detail::node_base_prevnext" }
%"class.llvm::ilist_detail::node_base_prevnext" = type { ptr, ptr }
%"struct.llvm::SDNodeFlags" = type { i16 }
%union.anon = type { %"class.llvm::SDNode::LSBaseSDNodeBitfields" }
%"class.llvm::SDNode::LSBaseSDNodeBitfields" = type { i16 }
%"class.llvm::DebugLoc" = type { %"class.llvm::TypedTrackingMDRef" }
%"class.llvm::TypedTrackingMDRef" = type { %"class.llvm::TrackingMDRef" }
%"class.llvm::TrackingMDRef" = type { ptr }
%"class.llvm::SDLoc" = type <{ %"class.llvm::DebugLoc", i32, [4 x i8] }>
%"class.llvm::DAGTypeLegalizer" = type { ptr, ptr, %"class.llvm::TargetLoweringBase::ValueTypeActionImpl", i32, %"class.llvm::SmallDenseMap", %"class.llvm::SmallDenseMap.0", %"class.llvm::SmallDenseMap.3", %"class.llvm::SmallDenseMap.6", %"class.llvm::SmallDenseMap.3", %"class.llvm::SmallDenseMap.3", %"class.llvm::SmallDenseMap.3", %"class.llvm::SmallDenseMap.6", %"class.llvm::SmallDenseMap.3", %"class.llvm::SmallDenseMap.6", %"class.llvm::SmallDenseMap.3", %"class.llvm::SmallDenseMap.3", %"class.llvm::SmallVector" }
%"class.llvm::TargetLoweringBase::ValueTypeActionImpl" = type { [233 x i8] }
%"class.llvm::SmallDenseMap" = type { i32, i32, %"struct.llvm::AlignedCharArrayUnion" }
%"struct.llvm::AlignedCharArrayUnion" = type { [192 x i8] }
%"class.llvm::SmallDenseMap.0" = type { i32, i32, %"struct.llvm::AlignedCharArrayUnion.2" }
%"struct.llvm::AlignedCharArrayUnion.2" = type { [192 x i8] }
%"class.llvm::SmallDenseMap.6" = type { i32, i32, %"struct.llvm::AlignedCharArrayUnion.8" }
%"struct.llvm::AlignedCharArrayUnion.8" = type { [96 x i8] }
%"class.llvm::SmallDenseMap.3" = type { i32, i32, %"struct.llvm::AlignedCharArrayUnion.5" }
%"struct.llvm::AlignedCharArrayUnion.5" = type { [64 x i8] }
%"class.llvm::SmallVector" = type { %"class.llvm::SmallVectorImpl", %"struct.llvm::SmallVectorStorage" }
%"class.llvm::SmallVectorImpl" = type { %"class.llvm::SmallVectorTemplateBase" }
%"class.llvm::SmallVectorTemplateBase" = type { %"class.llvm::SmallVectorTemplateCommon" }
%"class.llvm::SmallVectorTemplateCommon" = type { %"class.llvm::SmallVectorBase" }
%"class.llvm::SmallVectorBase" = type { ptr, i32, i32 }
%"struct.llvm::SmallVectorStorage" = type { [1024 x i8] }
%"class.llvm::SelectionDAG" = type { ptr, ptr, ptr, ptr, ptr, ptr, ptr, ptr, ptr, i32, ptr, ptr, ptr, ptr, ptr, ptr, %"class.llvm::FoldingSet", %"class.llvm::BumpPtrAllocatorImpl", %"class.llvm::SDNode", %"class.llvm::SDValue", %"class.llvm::iplist", %"class.llvm::RecyclingAllocator", %"class.llvm::FoldingSet.21", %"class.llvm::BumpPtrAllocatorImpl", %"class.llvm::ArrayRecycler", ptr, %"class.llvm::DenseMap.28", i16, i8, ptr, %"class.std::vector", %"class.std::vector.34", %"class.std::map.39", %"class.llvm::StringMap", %"class.std::map.45", %"class.llvm::DenseMap.51", ptr }
%"class.llvm::FoldingSet" = type { %"class.llvm::FoldingSetImpl" }
%"class.llvm::FoldingSetImpl" = type { %"class.llvm::FoldingSetBase" }
%"class.llvm::FoldingSetBase" = type { ptr, i32, i32 }
%"class.llvm::iplist" = type { %"class.llvm::iplist_impl" }
%"class.llvm::iplist_impl" = type { %"class.llvm::simple_ilist" }
%"class.llvm::simple_ilist" = type { %"class.llvm::ilist_sentinel" }
%"class.llvm::ilist_sentinel" = type { %"class.llvm::ilist_node_impl" }
%"class.llvm::RecyclingAllocator" = type { %"class.llvm::Recycler", %"class.llvm::BumpPtrAllocatorImpl" }
%"class.llvm::Recycler" = type { ptr }
%"class.llvm::FoldingSet.21" = type { %"class.llvm::FoldingSetImpl.22" }
%"class.llvm::FoldingSetImpl.22" = type { %"class.llvm::FoldingSetBase" }
%"class.llvm::BumpPtrAllocatorImpl" = type { ptr, ptr, %"class.llvm::SmallVector.11", %"class.llvm::SmallVector.16", i64, i64 }
%"class.llvm::SmallVector.11" = type { %"class.llvm::SmallVectorImpl.12", %"struct.llvm::SmallVectorStorage.15" }
%"class.llvm::SmallVectorImpl.12" = type { %"class.llvm::SmallVectorTemplateBase.13" }
%"class.llvm::SmallVectorTemplateBase.13" = type { %"class.llvm::SmallVectorTemplateCommon.14" }
%"class.llvm::SmallVectorTemplateCommon.14" = type { %"class.llvm::SmallVectorBase" }
%"struct.llvm::SmallVectorStorage.15" = type { [32 x i8] }
%"class.llvm::SmallVector.16" = type { %"class.llvm::SmallVectorImpl.17" }
%"class.llvm::SmallVectorImpl.17" = type { %"class.llvm::SmallVectorTemplateBase.18" }
%"class.llvm::SmallVectorTemplateBase.18" = type { %"class.llvm::SmallVectorTemplateCommon.19" }
%"class.llvm::SmallVectorTemplateCommon.19" = type { %"class.llvm::SmallVectorBase" }
%"class.llvm::ArrayRecycler" = type { %"class.llvm::SmallVector.23" }
%"class.llvm::SmallVector.23" = type { %"class.llvm::SmallVectorImpl.24", %"struct.llvm::SmallVectorStorage.27" }
%"class.llvm::SmallVectorImpl.24" = type { %"class.llvm::SmallVectorTemplateBase.25" }
%"class.llvm::SmallVectorTemplateBase.25" = type { %"class.llvm::SmallVectorTemplateCommon.26" }
%"class.llvm::SmallVectorTemplateCommon.26" = type { %"class.llvm::SmallVectorBase" }
%"struct.llvm::SmallVectorStorage.27" = type { [64 x i8] }
%"class.llvm::DenseMap.28" = type <{ ptr, i32, i32, i32, [4 x i8] }>
%"class.std::vector" = type { %"struct.std::_Vector_base" }
%"struct.std::_Vector_base" = type { %"struct.std::_Vector_base<llvm::CondCodeSDNode *, std::allocator<llvm::CondCodeSDNode *>>::_Vector_impl" }
%"struct.std::_Vector_base<llvm::CondCodeSDNode *, std::allocator<llvm::CondCodeSDNode *>>::_Vector_impl" = type { %"struct.std::_Vector_base<llvm::CondCodeSDNode *, std::allocator<llvm::CondCodeSDNode *>>::_Vector_impl_data" }
%"struct.std::_Vector_base<llvm::CondCodeSDNode *, std::allocator<llvm::CondCodeSDNode *>>::_Vector_impl_data" = type { ptr, ptr, ptr }
%"class.std::vector.34" = type { %"struct.std::_Vector_base.35" }
%"struct.std::_Vector_base.35" = type { %"struct.std::_Vector_base<llvm::SDNode *, std::allocator<llvm::SDNode *>>::_Vector_impl" }
%"struct.std::_Vector_base<llvm::SDNode *, std::allocator<llvm::SDNode *>>::_Vector_impl" = type { %"struct.std::_Vector_base<llvm::SDNode *, std::allocator<llvm::SDNode *>>::_Vector_impl_data" }
%"struct.std::_Vector_base<llvm::SDNode *, std::allocator<llvm::SDNode *>>::_Vector_impl_data" = type { ptr, ptr, ptr }
%"class.std::map.39" = type { %"class.std::_Rb_tree.40" }
%"class.std::_Rb_tree.40" = type { %"struct.std::_Rb_tree<llvm::EVT, std::pair<const llvm::EVT, llvm::SDNode *>, std::_Select1st<std::pair<const llvm::EVT, llvm::SDNode *>>, llvm::EVT::compareRawBits>::_Rb_tree_impl" }
%"struct.std::_Rb_tree<llvm::EVT, std::pair<const llvm::EVT, llvm::SDNode *>, std::_Select1st<std::pair<const llvm::EVT, llvm::SDNode *>>, llvm::EVT::compareRawBits>::_Rb_tree_impl" = type { [8 x i8], %"struct.std::_Rb_tree_header" }
%"struct.std::_Rb_tree_header" = type { %"struct.std::_Rb_tree_node_base", i64 }
%"struct.std::_Rb_tree_node_base" = type { i32, ptr, ptr, ptr }
%"class.llvm::StringMap" = type { %"class.llvm::StringMapImpl" }
%"class.llvm::StringMapImpl" = type { ptr, i32, i32, i32, i32 }
%"class.std::map.45" = type { %"class.std::_Rb_tree.46" }
%"class.std::_Rb_tree.46" = type { %"struct.std::_Rb_tree<std::pair<std::__cxx11::basic_string<char>, unsigned int>, std::pair<const std::pair<std::__cxx11::basic_string<char>, unsigned int>, llvm::SDNode *>, std::_Select1st<std::pair<const std::pair<std::__cxx11::basic_string<char>, unsigned int>, llvm::SDNode *>>, std::less<std::pair<std::__cxx11::basic_string<char>, unsigned int>>>::_Rb_tree_impl" }
%"struct.std::_Rb_tree<std::pair<std::__cxx11::basic_string<char>, unsigned int>, std::pair<const std::pair<std::__cxx11::basic_string<char>, unsigned int>, llvm::SDNode *>, std::_Select1st<std::pair<const std::pair<std::__cxx11::basic_string<char>, unsigned int>, llvm::SDNode *>>, std::less<std::pair<std::__cxx11::basic_string<char>, unsigned int>>>::_Rb_tree_impl" = type { [8 x i8], %"struct.std::_Rb_tree_header" }
%"class.llvm::DenseMap.51" = type <{ ptr, i32, i32, i32, [4 x i8] }>

; Function Attrs: mustprogress nounwind uwtable
define linkonce_odr hidden void @_ZN4llvm16MetadataTracking7untrackERPNS_8MetadataE(ptr noundef nonnull align 8 dereferenceable(8) %0) #0 comdat align 2 {
  %2 = alloca ptr, align 8
  store ptr %0, ptr %2, align 8
  %3 = load ptr, ptr %2, align 8
  %4 = load ptr, ptr %2, align 8
  %5 = load ptr, ptr %4, align 8
  call void @_ZN4llvm16MetadataTracking7untrackEPvRNS_8MetadataE(ptr noundef %3, ptr noundef nonnull align 4 dereferenceable(8) %5)
  ret void
}

; Function Attrs: mustprogress nounwind uwtable
define linkonce_odr hidden void @_ZN4llvm13TrackingMDRef7untrackEv(ptr noundef nonnull align 8 dereferenceable(8) %0) #0 comdat align 2 {
  %2 = alloca ptr, align 8
  store ptr %0, ptr %2, align 8
  %3 = load ptr, ptr %2, align 8
  %4 = getelementptr inbounds nuw %"class.llvm::TrackingMDRef", ptr %3, i32 0, i32 0
  %5 = load ptr, ptr %4, align 8
  %6 = icmp ne ptr %5, null
  br i1 %6, label %7, label %9

7:                                                ; preds = %1
  %8 = getelementptr inbounds nuw %"class.llvm::TrackingMDRef", ptr %3, i32 0, i32 0
  call void @_ZN4llvm16MetadataTracking7untrackERPNS_8MetadataE(ptr noundef nonnull align 8 dereferenceable(8) %8)
  br label %9

9:                                                ; preds = %7, %1
  ret void
}

; Function Attrs: mustprogress nounwind uwtable
define linkonce_odr hidden void @_ZN4llvm13TrackingMDRefD2Ev(ptr noundef nonnull align 8 dereferenceable(8) %0) unnamed_addr #0 comdat align 2 {
  %2 = alloca ptr, align 8
  store ptr %0, ptr %2, align 8
  %3 = load ptr, ptr %2, align 8
  call void @_ZN4llvm13TrackingMDRef7untrackEv(ptr noundef nonnull align 8 dereferenceable(8) %3)
  ret void
}

; Function Attrs: mustprogress nounwind uwtable
define linkonce_odr hidden void @_ZN4llvm13TrackingMDRefC2Ev(ptr noundef nonnull align 8 dereferenceable(8) %0) unnamed_addr #0 comdat align 2 {
  %2 = alloca ptr, align 8
  store ptr %0, ptr %2, align 8
  %3 = load ptr, ptr %2, align 8
  %4 = getelementptr inbounds nuw %"class.llvm::TrackingMDRef", ptr %3, i32 0, i32 0
  store ptr null, ptr %4, align 8
  ret void
}

; Function Attrs: mustprogress nounwind uwtable
define linkonce_odr hidden void @_ZN4llvm18TypedTrackingMDRefINS_6MDNodeEED2Ev(ptr noundef nonnull align 8 dereferenceable(8) %0) unnamed_addr #0 comdat align 2 {
  %2 = alloca ptr, align 8
  store ptr %0, ptr %2, align 8
  %3 = load ptr, ptr %2, align 8
  %4 = getelementptr inbounds nuw %"class.llvm::TypedTrackingMDRef", ptr %3, i32 0, i32 0
  call void @_ZN4llvm13TrackingMDRefD2Ev(ptr noundef nonnull align 8 dereferenceable(8) %4) #10
  ret void
}

; Function Attrs: mustprogress nounwind uwtable
define linkonce_odr hidden void @_ZN4llvm18TypedTrackingMDRefINS_6MDNodeEEC2Ev(ptr noundef nonnull align 8 dereferenceable(8) %0) unnamed_addr #0 comdat align 2 {
  %2 = alloca ptr, align 8
  store ptr %0, ptr %2, align 8
  %3 = load ptr, ptr %2, align 8
  %4 = getelementptr inbounds nuw %"class.llvm::TypedTrackingMDRef", ptr %3, i32 0, i32 0
  call void @_ZN4llvm13TrackingMDRefC2Ev(ptr noundef nonnull align 8 dereferenceable(8) %4) #10
  ret void
}

; Function Attrs: mustprogress nounwind uwtable
define linkonce_odr hidden void @_ZN4llvm8DebugLocD2Ev(ptr noundef nonnull align 8 dereferenceable(8) %0) unnamed_addr #0 comdat align 2 {
  %2 = alloca ptr, align 8
  store ptr %0, ptr %2, align 8
  %3 = load ptr, ptr %2, align 8
  %4 = getelementptr inbounds nuw %"class.llvm::DebugLoc", ptr %3, i32 0, i32 0
  call void @_ZN4llvm18TypedTrackingMDRefINS_6MDNodeEED2Ev(ptr noundef nonnull align 8 dereferenceable(8) %4) #10
  ret void
}

; Function Attrs: mustprogress nounwind uwtable
define linkonce_odr hidden void @_ZN4llvm8DebugLocC2Ev(ptr noundef nonnull align 8 dereferenceable(8) %0) unnamed_addr #0 comdat align 2 {
  %2 = alloca ptr, align 8
  store ptr %0, ptr %2, align 8
  %3 = load ptr, ptr %2, align 8
  %4 = getelementptr inbounds nuw %"class.llvm::DebugLoc", ptr %3, i32 0, i32 0
  call void @_ZN4llvm18TypedTrackingMDRefINS_6MDNodeEEC2Ev(ptr noundef nonnull align 8 dereferenceable(8) %4) #10
  ret void
}

; Function Attrs: mustprogress nounwind uwtable
define linkonce_odr hidden void @_ZN4llvm5SDLocD2Ev(ptr noundef nonnull align 8 dereferenceable(12) %0) unnamed_addr #0 comdat align 2 {
  %2 = alloca ptr, align 8
  store ptr %0, ptr %2, align 8
  %3 = load ptr, ptr %2, align 8
  %4 = getelementptr inbounds nuw %"class.llvm::SDLoc", ptr %3, i32 0, i32 0
  call void @_ZN4llvm8DebugLocD2Ev(ptr noundef nonnull align 8 dereferenceable(8) %4) #10
  ret void
}

; Function Attrs: mustprogress nounwind uwtable
define linkonce_odr hidden void @_ZN4llvm5SDLocC2Ev(ptr noundef nonnull align 8 dereferenceable(12) %0) unnamed_addr #0 comdat align 2 {
  %2 = alloca ptr, align 8
  store ptr %0, ptr %2, align 8
  %3 = load ptr, ptr %2, align 8
  %4 = getelementptr inbounds nuw %"class.llvm::SDLoc", ptr %3, i32 0, i32 0
  call void @_ZN4llvm8DebugLocC2Ev(ptr noundef nonnull align 8 dereferenceable(8) %4) #10
  %5 = getelementptr inbounds nuw %"class.llvm::SDLoc", ptr %3, i32 0, i32 1
  store i32 0, ptr %5, align 8
  ret void
}

; Function Attrs: mustprogress nounwind uwtable
define linkonce_odr hidden { ptr, i32 } @_ZN4llvm12SelectionDAG8getUNDEFENS_3EVTE(ptr noundef nonnull align 8 dereferenceable(904) %0, i16 %1, ptr %2) #0 comdat align 2 {
  %4 = alloca %"class.llvm::SDValue", align 8
  %5 = alloca %"struct.llvm::EVT", align 8
  %6 = alloca ptr, align 8
  %7 = alloca %"class.llvm::SDLoc", align 8
  %8 = alloca %"struct.llvm::EVT", align 8
  %9 = alloca { ptr, i32 }, align 8
  %10 = getelementptr inbounds nuw { i16, ptr }, ptr %5, i32 0, i32 0
  store i16 %1, ptr %10, align 8
  %11 = getelementptr inbounds nuw { i16, ptr }, ptr %5, i32 0, i32 1
  store ptr %2, ptr %11, align 8
  store ptr %0, ptr %6, align 8
  %12 = load ptr, ptr %6, align 8
  call void @llvm.memset.p0.i64(ptr align 8 %7, i8 0, i64 16, i1 false)
  call void @_ZN4llvm5SDLocC2Ev(ptr noundef nonnull align 8 dereferenceable(12) %7) #10
  call void @llvm.memcpy.p0.p0.i64(ptr align 8 %8, ptr align 8 %5, i64 16, i1 false)
  %13 = getelementptr inbounds nuw { i16, ptr }, ptr %8, i32 0, i32 0
  %14 = load i16, ptr %13, align 8
  %15 = getelementptr inbounds nuw { i16, ptr }, ptr %8, i32 0, i32 1
  %16 = load ptr, ptr %15, align 8
  %17 = call { ptr, i32 } @_ZN4llvm12SelectionDAG7getNodeEjRKNS_5SDLocENS_3EVTE(ptr noundef nonnull align 8 dereferenceable(904) %12, i32 noundef 51, ptr noundef nonnull align 8 dereferenceable(12) %7, i16 %14, ptr %16)
  store { ptr, i32 } %17, ptr %9, align 8
  call void @llvm.memcpy.p0.p0.i64(ptr align 8 %4, ptr align 8 %9, i64 12, i1 false)
  call void @_ZN4llvm5SDLocD2Ev(ptr noundef nonnull align 8 dereferenceable(12) %7) #10
  %18 = load { ptr, i32 }, ptr %4, align 8
  ret { ptr, i32 } %18
}

; Function Attrs: mustprogress nounwind uwtable
define linkonce_odr hidden { i16, ptr } @_ZNK4llvm6SDNode12getValueTypeEj(ptr noundef nonnull align 8 dereferenceable(88) %0, i32 noundef %1) #0 comdat align 2 {
  %3 = alloca %"struct.llvm::EVT", align 8
  %4 = alloca ptr, align 8
  %5 = alloca i32, align 4
  store ptr %0, ptr %4, align 8
  store i32 %1, ptr %5, align 4
  %6 = load ptr, ptr %4, align 8
  %7 = getelementptr inbounds nuw %"class.llvm::SDNode", ptr %6, i32 0, i32 8
  %8 = load ptr, ptr %7, align 8
  %9 = load i32, ptr %5, align 4
  %10 = zext i32 %9 to i64
  %11 = getelementptr inbounds %"struct.llvm::EVT", ptr %8, i64 %10
  call void @llvm.memcpy.p0.p0.i64(ptr align 8 %3, ptr align 8 %11, i64 16, i1 false)
  %12 = load { i16, ptr }, ptr %3, align 8
  ret { i16, ptr } %12
}

; Function Attrs: mustprogress nounwind uwtable
define linkonce_odr hidden noundef ptr @_ZNK4llvm12SelectionDAG10getContextEv(ptr noundef nonnull align 8 dereferenceable(904) %0) #0 comdat align 2 {
  %2 = alloca ptr, align 8
  store ptr %0, ptr %2, align 8
  %3 = load ptr, ptr %2, align 8
  %4 = getelementptr inbounds nuw %"class.llvm::SelectionDAG", ptr %3, i32 0, i32 8
  %5 = load ptr, ptr %4, align 8
  ret ptr %5
}

; Function Attrs: mustprogress nounwind uwtable
define hidden { ptr, i32 } @_ZN4llvm16DAGTypeLegalizer20SoftenFloatRes_UNDEFEPNS_6SDNodeE(ptr noundef nonnull align 8 dereferenceable(2512) %0, ptr noundef %1) #0 align 2 {
  %3 = alloca %"class.llvm::SDValue", align 8
  %4 = alloca ptr, align 8
  %5 = alloca ptr, align 8
  %6 = alloca %"struct.llvm::EVT", align 8
  %7 = alloca %"struct.llvm::EVT", align 8
  %8 = alloca { ptr, i32 }, align 8
  store ptr %0, ptr %4, align 8
  store ptr %1, ptr %5, align 8
  %9 = load ptr, ptr %4, align 8
  %10 = getelementptr inbounds nuw %"class.llvm::DAGTypeLegalizer", ptr %9, i32 0, i32 1
  %11 = load ptr, ptr %10, align 8
  %12 = getelementptr inbounds nuw %"class.llvm::DAGTypeLegalizer", ptr %9, i32 0, i32 0
  %13 = load ptr, ptr %12, align 8
  %14 = getelementptr inbounds nuw %"class.llvm::DAGTypeLegalizer", ptr %9, i32 0, i32 1
  %15 = load ptr, ptr %14, align 8
  %16 = call noundef ptr @_ZNK4llvm12SelectionDAG10getContextEv(ptr noundef nonnull align 8 dereferenceable(904) %15)
  %17 = load ptr, ptr %5, align 8
  %18 = call { i16, ptr } @_ZNK4llvm6SDNode12getValueTypeEj(ptr noundef nonnull align 8 dereferenceable(88) %17, i32 noundef 0)
  %19 = getelementptr inbounds nuw { i16, ptr }, ptr %7, i32 0, i32 0
  %20 = extractvalue { i16, ptr } %18, 0
  store i16 %20, ptr %19, align 8
  %21 = getelementptr inbounds nuw { i16, ptr }, ptr %7, i32 0, i32 1
  %22 = extractvalue { i16, ptr } %18, 1
  store ptr %22, ptr %21, align 8
  %23 = getelementptr inbounds nuw { i16, ptr }, ptr %7, i32 0, i32 0
  %24 = load i16, ptr %23, align 8
  %25 = getelementptr inbounds nuw { i16, ptr }, ptr %7, i32 0, i32 1
  %26 = load ptr, ptr %25, align 8
  %27 = load ptr, ptr %13, align 8
  %28 = getelementptr inbounds ptr, ptr %27, i64 73
  %29 = load ptr, ptr %28, align 8
  %30 = call { i16, ptr } %29(ptr noundef nonnull align 8 dereferenceable(408123) %13, ptr noundef nonnull align 8 dereferenceable(8) %16, i16 %24, ptr %26)
  %31 = getelementptr inbounds nuw { i16, ptr }, ptr %6, i32 0, i32 0
  %32 = extractvalue { i16, ptr } %30, 0
  store i16 %32, ptr %31, align 8
  %33 = getelementptr inbounds nuw { i16, ptr }, ptr %6, i32 0, i32 1
  %34 = extractvalue { i16, ptr } %30, 1
  store ptr %34, ptr %33, align 8
  %35 = getelementptr inbounds nuw { i16, ptr }, ptr %6, i32 0, i32 0
  %36 = load i16, ptr %35, align 8
  %37 = getelementptr inbounds nuw { i16, ptr }, ptr %6, i32 0, i32 1
  %38 = load ptr, ptr %37, align 8
  %39 = call { ptr, i32 } @_ZN4llvm12SelectionDAG8getUNDEFENS_3EVTE(ptr noundef nonnull align 8 dereferenceable(904) %11, i16 %36, ptr %38)
  store { ptr, i32 } %39, ptr %8, align 8
  call void @llvm.memcpy.p0.p0.i64(ptr align 8 %3, ptr align 8 %8, i64 12, i1 false)
  %40 = load { ptr, i32 }, ptr %3, align 8
  ret { ptr, i32 } %40
}