; Function Attrs: mustprogress nounwind uwtable
define hidden { ptr, i32 } @_ZN4llvm16DAGTypeLegalizer20SoftenFloatRes_UNDEFEPNS_6SDNodeE(ptr nocapture noundef nonnull readonly align 8 dereferenceable(2512) %0, ptr nocapture noundef readonly %1) local_unnamed_addr #0 align 2 {
  %3 = alloca %"class.llvm::SDLoc", align 8
  %4 = getelementptr inbounds nuw i8, ptr %0, i64 8
  %5 = load ptr, ptr %4, align 8
  %6 = load ptr, ptr %0, align 8
  %7 = getelementptr inbounds nuw i8, ptr %5, i64 64
  %8 = load ptr, ptr %7, align 8
  %9 = getelementptr inbounds nuw i8, ptr %1, i64 48
  %10 = load ptr, ptr %9, align 8
  %.sroa.0.0.copyload.i = load i16, ptr %10, align 8
  %.sroa.21.0..sroa_idx.i = getelementptr inbounds i8, ptr %10, i64 8
  %.sroa.21.0.copyload.i = load ptr, ptr %.sroa.21.0..sroa_idx.i, align 8
  %11 = load ptr, ptr %6, align 8
  %12 = getelementptr inbounds i8, ptr %11, i64 584
  %13 = load ptr, ptr %12, align 8
  %14 = tail call { i16, ptr } %13(ptr noundef nonnull align 8 dereferenceable(408123) %6, ptr noundef nonnull align 8 dereferenceable(8) %8, i16 %.sroa.0.0.copyload.i, ptr %.sroa.21.0.copyload.i) #15
  %15 = extractvalue { i16, ptr } %14, 0
  %16 = extractvalue { i16, ptr } %14, 1
  call void @llvm.lifetime.start.p0(i64 16, ptr nonnull %3)
  call void @llvm.memset.p0.i64(ptr noundef nonnull align 8 dereferenceable(16) %3, i8 0, i64 16, i1 false)
  %17 = call { ptr, i32 } @_ZN4llvm12SelectionDAG7getNodeEjRKNS_5SDLocENS_3EVTE(ptr noundef nonnull align 8 dereferenceable(904) %5, i32 noundef 51, ptr noundef nonnull align 8 dereferenceable(12) %3, i16 %15, ptr %16) #15
  %18 = load ptr, ptr %3, align 8
  %.not.i.i.i.i.i.i = icmp eq ptr %18, null
  br i1 %.not.i.i.i.i.i.i, label %_ZN4llvm12SelectionDAG8getUNDEFENS_3EVTE.exit, label %19

19:                                               ; preds = %2
  call void @_ZN4llvm16MetadataTracking7untrackEPvRNS_8MetadataE(ptr noundef nonnull %3, ptr noundef nonnull align 4 dereferenceable(8) %18) #15
  br label %_ZN4llvm12SelectionDAG8getUNDEFENS_3EVTE.exit

_ZN4llvm12SelectionDAG8getUNDEFENS_3EVTE.exit:    ; preds = %2, %19
  call void @llvm.lifetime.end.p0(i64 16, ptr nonnull %3)
  ret { ptr, i32 } %17
}